target datalayout = "e-m:e-p270:32:32-p271:32:32-p272:64:64-i64:64-i128:128-f80:128-n8:16:32:64-S128"
target triple = "x86_64-pc-linux-gnu"

%struct.OnigEncodingTypeST = type { ptr, ptr, i32, i32, ptr, ptr, ptr, ptr, ptr, ptr, ptr, ptr, ptr, ptr, ptr, ptr, ptr, ptr, ptr, i32, i32, i32 }
%struct._BBuf = type { ptr, i32, i32 }

; Function Attrs: nounwind uwtable
define internal void @bbuf_free(ptr noundef %0) #0 {
  %2 = alloca ptr, align 8
  store ptr %0, ptr %2, align 8, !tbaa !123
  %3 = load ptr, ptr %2, align 8, !tbaa !123
  %4 = icmp ne ptr %3, null
  br i1 %4, label %5, label %16

5:                                                ; preds = %1
  %6 = load ptr, ptr %2, align 8, !tbaa !123
  %7 = getelementptr inbounds nuw %struct._BBuf, ptr %6, i32 0, i32 0
  %8 = load ptr, ptr %7, align 8, !tbaa !127
  %9 = icmp ne ptr %8, null
  br i1 %9, label %10, label %14

10:                                               ; preds = %5
  %11 = load ptr, ptr %2, align 8, !tbaa !123
  %12 = getelementptr inbounds nuw %struct._BBuf, ptr %11, i32 0, i32 0
  %13 = load ptr, ptr %12, align 8, !tbaa !127
  call void @free(ptr noundef %13) #8
  br label %14

14:                                               ; preds = %10, %5
  %15 = load ptr, ptr %2, align 8, !tbaa !123
  call void @free(ptr noundef %15) #8
  br label %16

16:                                               ; preds = %14, %1
  ret void
}

; Function Attrs: nounwind uwtable
define internal i32 @not_code_range_buf(ptr noundef %0, ptr noundef %1, ptr noundef %2) #0 {
  %4 = alloca i32, align 4
  %5 = alloca ptr, align 8
  %6 = alloca ptr, align 8
  %7 = alloca ptr, align 8
  %8 = alloca i32, align 4
  %9 = alloca i32, align 4
  %10 = alloca i32, align 4
  %11 = alloca i32, align 4
  %12 = alloca i32, align 4
  %13 = alloca ptr, align 8
  %14 = alloca i32, align 4
  %15 = alloca i32, align 4
  store ptr %0, ptr %5, align 8, !tbaa !32
  store ptr %1, ptr %6, align 8, !tbaa !123
  store ptr %2, ptr %7, align 8, !tbaa !121
  call void @llvm.lifetime.start.p0(i64 4, ptr %8) #8
  call void @llvm.lifetime.start.p0(i64 4, ptr %9) #8
  call void @llvm.lifetime.start.p0(i64 4, ptr %10) #8
  call void @llvm.lifetime.start.p0(i64 4, ptr %11) #8
  call void @llvm.lifetime.start.p0(i64 4, ptr %12) #8
  call void @llvm.lifetime.start.p0(i64 8, ptr %13) #8
  call void @llvm.lifetime.start.p0(i64 4, ptr %14) #8
  store i32 0, ptr %14, align 4, !tbaa !10
  %16 = load ptr, ptr %7, align 8, !tbaa !121
  store ptr null, ptr %16, align 8, !tbaa !123
  %17 = load ptr, ptr %6, align 8, !tbaa !123
  %18 = icmp eq ptr %17, null
  br i1 %18, label %19, label %28

19:                                               ; preds = %3
  br label %20

20:                                               ; preds = %38, %19
  %21 = load ptr, ptr %7, align 8, !tbaa !121
  %22 = load ptr, ptr %5, align 8, !tbaa !32
  %23 = getelementptr inbounds nuw %struct.OnigEncodingTypeST, ptr %22, i32 0, i32 3
  %24 = load i32, ptr %23, align 4, !tbaa !136
  %25 = icmp sgt i32 %24, 1
  %26 = select i1 %25, i32 0, i32 128
  %27 = call i32 @add_code_range_to_buf(ptr noundef %21, i32 noundef %26, i32 noundef -1)
  store i32 %27, ptr %4, align 4
  store i32 1, ptr %15, align 4
  br label %106

28:                                               ; preds = %3
  %29 = load ptr, ptr %6, align 8, !tbaa !123
  %30 = getelementptr inbounds nuw %struct._BBuf, ptr %29, i32 0, i32 0
  %31 = load ptr, ptr %30, align 8, !tbaa !127
  store ptr %31, ptr %13, align 8, !tbaa !62
  %32 = load ptr, ptr %13, align 8, !tbaa !62
  %33 = load i32, ptr %32, align 4, !tbaa !10
  store i32 %33, ptr %10, align 4, !tbaa !10
  %34 = load ptr, ptr %13, align 8, !tbaa !62
  %35 = getelementptr inbounds nuw i32, ptr %34, i32 1
  store ptr %35, ptr %13, align 8, !tbaa !62
  %36 = load i32, ptr %10, align 4, !tbaa !10
  %37 = icmp sle i32 %36, 0
  br i1 %37, label %38, label %39

38:                                               ; preds = %28
  br label %20

39:                                               ; preds = %28
  store i32 0, ptr %8, align 4, !tbaa !10
  %40 = load ptr, ptr %5, align 8, !tbaa !32
  %41 = getelementptr inbounds nuw %struct.OnigEncodingTypeST, ptr %40, i32 0, i32 3
  %42 = load i32, ptr %41, align 4, !tbaa !136
  %43 = icmp sgt i32 %42, 1
  %44 = select i1 %43, i32 0, i32 128
  store i32 %44, ptr %11, align 4, !tbaa !10
  store i32 0, ptr %9, align 4, !tbaa !10
  br label %45

45:                                               ; preds = %87, %39
  %46 = load i32, ptr %9, align 4, !tbaa !10
  %47 = load i32, ptr %10, align 4, !tbaa !10
  %48 = icmp slt i32 %46, %47
  br i1 %48, label %49, label %90

49:                                               ; preds = %45
  %50 = load ptr, ptr %13, align 8, !tbaa !62
  %51 = load i32, ptr %9, align 4, !tbaa !10
  %52 = mul nsw i32 %51, 2
  %53 = sext i32 %52 to i64
  %54 = getelementptr inbounds i32, ptr %50, i64 %53
  %55 = load i32, ptr %54, align 4, !tbaa !10
  store i32 %55, ptr %12, align 4, !tbaa !10
  %56 = load ptr, ptr %13, align 8, !tbaa !62
  %57 = load i32, ptr %9, align 4, !tbaa !10
  %58 = mul nsw i32 %57, 2
  %59 = add nsw i32 %58, 1
  %60 = sext i32 %59 to i64
  %61 = getelementptr inbounds i32, ptr %56, i64 %60
  %62 = load i32, ptr %61, align 4, !tbaa !10
  store i32 %62, ptr %14, align 4, !tbaa !10
  %63 = load i32, ptr %11, align 4, !tbaa !10
  %64 = load i32, ptr %12, align 4, !tbaa !10
  %65 = sub i32 %64, 1
  %66 = icmp ule i32 %63, %65
  br i1 %66, label %67, label %80

67:                                               ; preds = %49
  %68 = load ptr, ptr %7, align 8, !tbaa !121
  %69 = load i32, ptr %11, align 4, !tbaa !10
  %70 = load i32, ptr %12, align 4, !tbaa !10
  %71 = sub i32 %70, 1
  %72 = call i32 @add_code_range_to_buf(ptr noundef %68, i32 noundef %69, i32 noundef %71)
  store i32 %72, ptr %8, align 4, !tbaa !10
  %73 = load i32, ptr %8, align 4, !tbaa !10
  %74 = icmp ne i32 %73, 0
  br i1 %74, label %75, label %79

75:                                               ; preds = %67
  %76 = load ptr, ptr %7, align 8, !tbaa !121
  %77 = load ptr, ptr %76, align 8, !tbaa !123
  call void @bbuf_free(ptr noundef %77)
  %78 = load i32, ptr %8, align 4, !tbaa !10
  store i32 %78, ptr %4, align 4
  store i32 1, ptr %15, align 4
  br label %106

79:                                               ; preds = %67
  br label %80

80:                                               ; preds = %79, %49
  %81 = load i32, ptr %14, align 4, !tbaa !10
  %82 = icmp eq i32 %81, -1
  br i1 %82, label %83, label %84

83:                                               ; preds = %80
  br label %90

84:                                               ; preds = %80
  %85 = load i32, ptr %14, align 4, !tbaa !10
  %86 = add i32 %85, 1
  store i32 %86, ptr %11, align 4, !tbaa !10
  br label %87

87:                                               ; preds = %84
  %88 = load i32, ptr %9, align 4, !tbaa !10
  %89 = add nsw i32 %88, 1
  store i32 %89, ptr %9, align 4, !tbaa !10
  br label %45, !llvm.loop !324

90:                                               ; preds = %83, %45
  %91 = load i32, ptr %14, align 4, !tbaa !10
  %92 = icmp ult i32 %91, -1
  br i1 %92, label %93, label %104

93:                                               ; preds = %90
  %94 = load ptr, ptr %7, align 8, !tbaa !121
  %95 = load i32, ptr %14, align 4, !tbaa !10
  %96 = add i32 %95, 1
  %97 = call i32 @add_code_range_to_buf(ptr noundef %94, i32 noundef %96, i32 noundef -1)
  store i32 %97, ptr %8, align 4, !tbaa !10
  %98 = load i32, ptr %8, align 4, !tbaa !10
  %99 = icmp ne i32 %98, 0
  br i1 %99, label %100, label %103

100:                                              ; preds = %93
  %101 = load ptr, ptr %7, align 8, !tbaa !121
  %102 = load ptr, ptr %101, align 8, !tbaa !123
  call void @bbuf_free(ptr noundef %102)
  br label %103

103:                                              ; preds = %100, %93
  br label %104

104:                                              ; preds = %103, %90
  %105 = load i32, ptr %8, align 4, !tbaa !10
  store i32 %105, ptr %4, align 4
  store i32 1, ptr %15, align 4
  br label %106

106:                                              ; preds = %104, %75, %20
  call void @llvm.lifetime.end.p0(i64 4, ptr %14) #8
  call void @llvm.lifetime.end.p0(i64 8, ptr %13) #8
  call void @llvm.lifetime.end.p0(i64 4, ptr %12) #8
  call void @llvm.lifetime.end.p0(i64 4, ptr %11) #8
  call void @llvm.lifetime.end.p0(i64 4, ptr %10) #8
  call void @llvm.lifetime.end.p0(i64 4, ptr %9) #8
  call void @llvm.lifetime.end.p0(i64 4, ptr %8) #8
  %107 = load i32, ptr %4, align 4
  ret i32 %107
}