; Function Attrs: nounwind uwtable
define internal fastcc range(i32 -205, 1) i32 @not_code_range_buf(ptr noundef readonly captures(none) %0, ptr noundef readonly captures(address_is_null) %1, ptr noundef nonnull captures(none) initializes((0, 8)) %2) unnamed_addr #2 {
  store ptr null, ptr %2, align 8, !tbaa !113
  %4 = icmp eq ptr %1, null
  br i1 %4, label %5, label %11

5:                                                ; preds = %11, %3
  %6 = getelementptr inbounds nuw i8, ptr %0, i64 20
  %7 = load i32, ptr %6, align 4, !tbaa !124
  %8 = icmp sgt i32 %7, 1
  %9 = select i1 %8, i32 0, i32 128
  %10 = tail call fastcc i32 @add_code_range_to_buf(ptr noundef nonnull %2, i32 noundef %9, i32 noundef -1)
  br label %bbuf_free.exit

11:                                               ; preds = %3
  %12 = load ptr, ptr %1, align 8, !tbaa !108
  %13 = load i32, ptr %12, align 4, !tbaa !8
  %14 = getelementptr inbounds nuw i8, ptr %12, i64 4
  %15 = icmp slt i32 %13, 1
  br i1 %15, label %5, label %16

16:                                               ; preds = %11
  %17 = getelementptr inbounds nuw i8, ptr %0, i64 20
  %18 = load i32, ptr %17, align 4, !tbaa !124
  %19 = icmp sgt i32 %18, 1
  %20 = select i1 %19, i32 0, i32 128
  %wide.trip.count = zext nneg i32 %13 to i64
  br label %21

21:                                               ; preds = %16, %39
  %indvars.iv = phi i64 [ 0, %16 ], [ %indvars.iv.next, %39 ]
  %.03357 = phi i32 [ %20, %16 ], [ %40, %39 ]
  %22 = shl nuw nsw i64 %indvars.iv, 1
  %23 = getelementptr inbounds nuw i32, ptr %14, i64 %22
  %24 = load i32, ptr %23, align 4, !tbaa !8
  %25 = or disjoint i64 %22, 1
  %26 = getelementptr inbounds nuw i32, ptr %14, i64 %25
  %27 = load i32, ptr %26, align 4, !tbaa !8
  %28 = add i32 %24, -1
  %.not = icmp ugt i32 %.03357, %28
  br i1 %.not, label %37, label %29

29:                                               ; preds = %21
  %30 = tail call fastcc i32 @add_code_range_to_buf(ptr noundef nonnull %2, i32 noundef %.03357, i32 noundef %28)
  %.not46 = icmp eq i32 %30, 0
  br i1 %.not46, label %37, label %31

31:                                               ; preds = %29
  %32 = load ptr, ptr %2, align 8, !tbaa !113
  %.not.i = icmp eq ptr %32, null
  br i1 %.not.i, label %bbuf_free.exit, label %33

33:                                               ; preds = %31
  %34 = load ptr, ptr %32, align 8, !tbaa !108
  %.not5.i = icmp eq ptr %34, null
  br i1 %.not5.i, label %36, label %35

35:                                               ; preds = %33
  tail call void @free(ptr noundef nonnull %34) #24
  br label %36

36:                                               ; preds = %35, %33
  tail call void @free(ptr noundef nonnull %32) #24
  br label %bbuf_free.exit

37:                                               ; preds = %29, %21
  %38 = icmp eq i32 %27, -1
  br i1 %38, label %bbuf_free.exit, label %39

39:                                               ; preds = %37
  %40 = add nuw i32 %27, 1
  %indvars.iv.next = add nuw nsw i64 %indvars.iv, 1
  %exitcond.not = icmp eq i64 %indvars.iv.next, %wide.trip.count
  br i1 %exitcond.not, label %41, label %21, !llvm.loop !289

41:                                               ; preds = %39
  %42 = tail call fastcc i32 @add_code_range_to_buf(ptr noundef nonnull %2, i32 noundef %40, i32 noundef -1)
  %.not48 = icmp eq i32 %42, 0
  br i1 %.not48, label %bbuf_free.exit, label %43

43:                                               ; preds = %41
  %44 = load ptr, ptr %2, align 8, !tbaa !113
  %.not.i49 = icmp eq ptr %44, null
  br i1 %.not.i49, label %bbuf_free.exit, label %45

45:                                               ; preds = %43
  %46 = load ptr, ptr %44, align 8, !tbaa !108
  %.not5.i50 = icmp eq ptr %46, null
  br i1 %.not5.i50, label %48, label %47

47:                                               ; preds = %45
  tail call void @free(ptr noundef nonnull %46) #24
  br label %48

48:                                               ; preds = %47, %45
  tail call void @free(ptr noundef nonnull %44) #24
  br label %bbuf_free.exit

bbuf_free.exit:                                   ; preds = %37, %48, %43, %36, %31, %41, %5
  %.032 = phi i32 [ %10, %5 ], [ 0, %41 ], [ %30, %31 ], [ %30, %36 ], [ %42, %43 ], [ %42, %48 ], [ 0, %37 ]
  ret i32 %.032
}